Archive member included because of file (symbol)

/usr/lib/gcc/i686-pc-cygwin/4.3.2/libstdc++.dll.a(d002316.o)
                              build/memory1.o (___gxx_personality_v0)
/usr/lib/gcc/i686-pc-cygwin/4.3.2/libstdc++.dll.a(d001913.o)
                              (__imp___ZSt4cout)
/usr/lib/gcc/i686-pc-cygwin/4.3.2/libstdc++.dll.a(d001743.o)
                              build/memory1.o (__ZNSt8ios_base4InitC1Ev)
/usr/lib/gcc/i686-pc-cygwin/4.3.2/libstdc++.dll.a(d001950.o)
                              build/memory1.o (__ZStlsISt11char_traitsIcEERSt13basic_ostreamIcT_ES5_PKc)
/usr/lib/gcc/i686-pc-cygwin/4.3.2/libstdc++.dll.a(d000745.o)
                              build/memory1.o (__ZNSolsEPFRSoS_E)
/usr/lib/gcc/i686-pc-cygwin/4.3.2/libstdc++.dll.a(d000754.o)
                              build/memory1.o (__ZNSolsEi)
/usr/lib/gcc/i686-pc-cygwin/4.3.2/libstdc++.dll.a(d002279.o)
                              build/memory1.o (__ZdlPv)
/usr/lib/gcc/i686-pc-cygwin/4.3.2/libstdc++.dll.a(d001745.o)
                              build/memory1.o (__ZNSt8ios_base4InitD1Ev)
/usr/lib/gcc/i686-pc-cygwin/4.3.2/libstdc++.dll.a(d001914.o)
                              build/memory1.o (__ZSt4endlIcSt11char_traitsIcEERSt13basic_ostreamIT_T0_ES6_)
/usr/lib/gcc/i686-pc-cygwin/4.3.2/libstdc++.dll.a(d000000.o)
                              /usr/lib/gcc/i686-pc-cygwin/4.3.2/libstdc++.dll.a(d002316.o) (__head_cygstdc___6_dll)
/usr/lib/gcc/i686-pc-cygwin/4.3.2/libstdc++.dll.a(d002342.o)
                              /usr/lib/gcc/i686-pc-cygwin/4.3.2/libstdc++.dll.a(d000000.o) (_cygstdc___6_dll_iname)
/usr/lib/gcc/i686-pc-cygwin/4.3.2/libgcc_s.dll.a(d000035.o)
                              (___deregister_frame_info)
/usr/lib/gcc/i686-pc-cygwin/4.3.2/libgcc_s.dll.a(d000091.o)
                              (___register_frame_info)
/usr/lib/gcc/i686-pc-cygwin/4.3.2/libgcc_s.dll.a(d000015.o)
                              build/memory1.o (__Unwind_Resume)
/usr/lib/gcc/i686-pc-cygwin/4.3.2/libgcc_s.dll.a(d000000.o)
                              /usr/lib/gcc/i686-pc-cygwin/4.3.2/libgcc_s.dll.a(d000035.o) (__head_cyggcc_s_1_dll)
/usr/lib/gcc/i686-pc-cygwin/4.3.2/libgcc_s.dll.a(d000104.o)
                              /usr/lib/gcc/i686-pc-cygwin/4.3.2/libgcc_s.dll.a(d000000.o) (_cyggcc_s_1_dll_iname)
/usr/lib/gcc/i686-pc-cygwin/4.3.2/../../../libcygwin.a(cygwin_crt0.o)
                              /usr/lib/gcc/i686-pc-cygwin/4.3.2/../../../crt0.o (_cygwin_crt0)
/usr/lib/gcc/i686-pc-cygwin/4.3.2/../../../libcygwin.a(d000054.o)
                              build/memory1.o (___main)
/usr/lib/gcc/i686-pc-cygwin/4.3.2/../../../libcygwin.a(_cygwin_crt0_common.o)
                              /usr/lib/gcc/i686-pc-cygwin/4.3.2/../../../libcygwin.a(cygwin_crt0.o) (__cygwin_crt0_common@8)
/usr/lib/gcc/i686-pc-cygwin/4.3.2/../../../libcygwin.a(d000772.o)
                              /usr/lib/gcc/i686-pc-cygwin/4.3.2/../../../libcygwin.a(cygwin_crt0.o) (__imp__dll_crt0__FP11per_process)
/usr/lib/gcc/i686-pc-cygwin/4.3.2/../../../libcygwin.a(d000000.o)
                              /usr/lib/gcc/i686-pc-cygwin/4.3.2/../../../libcygwin.a(d000054.o) (__head_cygwin1_dll)
/usr/lib/gcc/i686-pc-cygwin/4.3.2/../../../libcygwin.a(d000327.o)
                              /usr/lib/gcc/i686-pc-cygwin/4.3.2/../../../libcygwin.a(_cygwin_crt0_common.o) (__imp___impure_ptr)
/usr/lib/gcc/i686-pc-cygwin/4.3.2/../../../libcygwin.a(pseudo-reloc.o)
                              /usr/lib/gcc/i686-pc-cygwin/4.3.2/../../../libcygwin.a(_cygwin_crt0_common.o) (__pei386_runtime_relocator)
/usr/lib/gcc/i686-pc-cygwin/4.3.2/../../../libcygwin.a(d000696.o)
                              /usr/lib/gcc/i686-pc-cygwin/4.3.2/../../../libcygwin.a(_cygwin_crt0_common.o) (_calloc)
/usr/lib/gcc/i686-pc-cygwin/4.3.2/../../../libcygwin.a(d001281.o)
                              /usr/lib/gcc/i686-pc-cygwin/4.3.2/../../../libcygwin.a(_cygwin_crt0_common.o) (_realloc)
/usr/lib/gcc/i686-pc-cygwin/4.3.2/../../../libcygwin.a(d000870.o)
                              /usr/lib/gcc/i686-pc-cygwin/4.3.2/../../../libcygwin.a(_cygwin_crt0_common.o) (_free)
/usr/lib/gcc/i686-pc-cygwin/4.3.2/../../../libcygwin.a(d001100.o)
                              /usr/lib/gcc/i686-pc-cygwin/4.3.2/../../../libcygwin.a(_cygwin_crt0_common.o) (_malloc)
/usr/lib/gcc/i686-pc-cygwin/4.3.2/../../../libcygwin.a(premain3.o)
                              /usr/lib/gcc/i686-pc-cygwin/4.3.2/../../../libcygwin.a(_cygwin_crt0_common.o) (_cygwin_premain3)
/usr/lib/gcc/i686-pc-cygwin/4.3.2/../../../libcygwin.a(premain2.o)
                              /usr/lib/gcc/i686-pc-cygwin/4.3.2/../../../libcygwin.a(_cygwin_crt0_common.o) (_cygwin_premain2)
/usr/lib/gcc/i686-pc-cygwin/4.3.2/../../../libcygwin.a(premain1.o)
                              /usr/lib/gcc/i686-pc-cygwin/4.3.2/../../../libcygwin.a(_cygwin_crt0_common.o) (_cygwin_premain1)
/usr/lib/gcc/i686-pc-cygwin/4.3.2/../../../libcygwin.a(premain0.o)
                              /usr/lib/gcc/i686-pc-cygwin/4.3.2/../../../libcygwin.a(_cygwin_crt0_common.o) (_cygwin_premain0)
/usr/lib/gcc/i686-pc-cygwin/4.3.2/../../../libcygwin.a(d000752.o)
                              /usr/lib/gcc/i686-pc-cygwin/4.3.2/../../../libcygwin.a(_cygwin_crt0_common.o) (_cygwin_internal)
/usr/lib/gcc/i686-pc-cygwin/4.3.2/../../../libcygwin.a(d001625.o)
                              /usr/lib/gcc/i686-pc-cygwin/4.3.2/../../../libcygwin.a(d000000.o) (_cygwin1_dll_iname)
/usr/lib/w32api/libkernel32.a(dyuhs00337.o)
                              /usr/lib/gcc/i686-pc-cygwin/4.3.2/crtbegin.o (_GetModuleHandleA@4)
/usr/lib/w32api/libkernel32.a(dyuhs00364.o)
                              /usr/lib/gcc/i686-pc-cygwin/4.3.2/crtbegin.o (_GetProcAddress@8)
/usr/lib/w32api/libkernel32.a(dyuhh.o)
                              /usr/lib/w32api/libkernel32.a(dyuhs00337.o) (__head_libkernel32_a)
/usr/lib/w32api/libkernel32.a(dyuht.o)
                              /usr/lib/w32api/libkernel32.a(dyuhh.o) (__libkernel32_a_iname)
/usr/lib/gcc/i686-pc-cygwin/4.3.2/libgcc_s.dll.a(_ctors.o)
                              /usr/lib/gcc/i686-pc-cygwin/4.3.2/../../../libcygwin.a(_cygwin_crt0_common.o) (___CTOR_LIST__)

Allocating common symbols
Common symbol       size              file

__DTOR_LIST__       0x10              /usr/lib/gcc/i686-pc-cygwin/4.3.2/libgcc_s.dll.a(_ctors.o)
__CTOR_LIST__       0x10              /usr/lib/gcc/i686-pc-cygwin/4.3.2/libgcc_s.dll.a(_ctors.o)

Discarded input sections

 .text          0x00000000        0x0 /usr/lib/gcc/i686-pc-cygwin/4.3.2/../../../libcygwin.a(d000772.o)

Memory Configuration

Name             Origin             Length             Attributes
*default*        0x00000000         0xffffffff

Linker script and memory map

                0x00400000                __image_base__ = 0x400000
                0x00000000                __dll__ = 0x0
                0x00400000                ___ImageBase = 0x400000
                0x00001000                __section_alignment__ = 0x1000
                0x00000200                __file_alignment__ = 0x200
                0x00000004                __major_os_version__ = 0x4
                0x00000000                __minor_os_version__ = 0x0
                0x00000001                __major_image_version__ = 0x1
                0x00000000                __minor_image_version__ = 0x0
                0x00000004                __major_subsystem_version__ = 0x4
                0x00000000                __minor_subsystem_version__ = 0x0
                0x00000003                __subsystem__ = 0x3
                0x00200000                __size_of_stack_reserve__ = 0x200000
                0x00001000                __size_of_stack_commit__ = 0x1000
                0x00100000                __size_of_heap_reserve__ = 0x100000
                0x00001000                __size_of_heap_commit__ = 0x1000
                0x00000000                __loader_flags__ = 0x0
LOAD /usr/lib/gcc/i686-pc-cygwin/4.3.2/../../../crt0.o
LOAD /usr/lib/gcc/i686-pc-cygwin/4.3.2/crtbegin.o
LOAD build/memory.a
LOAD build/memory1.o
LOAD /usr/lib/gcc/i686-pc-cygwin/4.3.2/../../../libm.a
LOAD /usr/lib/gcc/i686-pc-cygwin/4.3.2/libstdc++.dll.a
LOAD /usr/lib/gcc/i686-pc-cygwin/4.3.2/libgcc_s.dll.a
LOAD /usr/lib/gcc/i686-pc-cygwin/4.3.2/libgcc_s.dll.a
LOAD /usr/lib/gcc/i686-pc-cygwin/4.3.2/libgcc.a
LOAD /usr/lib/gcc/i686-pc-cygwin/4.3.2/../../../libcygwin.a
LOAD /usr/lib/w32api/libuser32.a
LOAD /usr/lib/w32api/libkernel32.a
LOAD /usr/lib/w32api/libadvapi32.a
LOAD /usr/lib/w32api/libshell32.a
LOAD /usr/lib/gcc/i686-pc-cygwin/4.3.2/libgcc_s.dll.a
LOAD /usr/lib/gcc/i686-pc-cygwin/4.3.2/libgcc_s.dll.a
LOAD /usr/lib/gcc/i686-pc-cygwin/4.3.2/libgcc.a
LOAD /usr/lib/gcc/i686-pc-cygwin/4.3.2/crtend.o
                0x000002e0                . = SIZEOF_HEADERS
                0x00001000                . = ALIGN (__section_alignment__)

.text           0x00401000     0x1400
 *(.init)
 *(.text)
 .text          0x00401000       0x50 /usr/lib/gcc/i686-pc-cygwin/4.3.2/../../../crt0.o
                0x00401000                _WinMainCRTStartup
                0x00401000                _mainCRTStartup
 .text          0x00401050       0xb0 /usr/lib/gcc/i686-pc-cygwin/4.3.2/crtbegin.o
                0x00401050                ___gcc_register_frame
                0x004010b0                ___gcc_deregister_frame
 .text          0x00401100      0xa54 build/memory1.o
                0x004012b9                __fu3___ZSt4cout
                0x004019b9                __fu25___ZSt4cout
                0x00401a9a                __fu28___ZSt4cout
                0x0040146c                __fu9___ZSt4cout
                0x00401526                __fu11___ZSt4cout
                0x004014ad                __fu10___ZSt4cout
                0x004015a8                __fu13___ZSt4cout
                0x0040119c                __fu0___ZSt4cout
                0x00401278                __fu2___ZSt4cout
                0x004018ff                __fu22___ZSt4cout
                0x004015e9                __fu14___ZSt4cout
                0x0040168f                __fu16___ZSt4cout
                0x00401940                __fu23___ZSt4cout
                0x004013ea                __fu7___ZSt4cout
                0x004012fa                __fu4___ZSt4cout
                0x00401711                __fu18___ZSt4cout
                0x0040183c                __fu19___ZSt4cout
                0x0040187d                __fu20___ZSt4cout
                0x004019f4                __fu26___ZSt4cout
                0x0040142b                __fu8___ZSt4cout
                0x00401a2f                __fu27___ZSt4cout
                0x004018be                __fu21___ZSt4cout
                0x00401237                __fu1___ZSt4cout
                0x0040133b                __fu5___ZSt4cout
                0x004016d0                __fu17___ZSt4cout
                0x00401567                __fu12___ZSt4cout
                0x0040164e                __fu15___ZSt4cout
                0x004013a9                __fu6___ZSt4cout
                0x00401176                _main
                0x0040197e                __fu24___ZSt4cout
 .text          0x00401b54        0x8 /usr/lib/gcc/i686-pc-cygwin/4.3.2/libstdc++.dll.a(d002316.o)
                0x00401b54                ___gxx_personality_v0
 .text          0x00401b5c        0x0 /usr/lib/gcc/i686-pc-cygwin/4.3.2/libstdc++.dll.a(d001913.o)
 .text          0x00401b5c        0x8 /usr/lib/gcc/i686-pc-cygwin/4.3.2/libstdc++.dll.a(d001743.o)
                0x00401b5c                __ZNSt8ios_base4InitC1Ev
 .text          0x00401b64        0x8 /usr/lib/gcc/i686-pc-cygwin/4.3.2/libstdc++.dll.a(d001950.o)
                0x00401b64                __ZStlsISt11char_traitsIcEERSt13basic_ostreamIcT_ES5_PKc
 .text          0x00401b6c        0x8 /usr/lib/gcc/i686-pc-cygwin/4.3.2/libstdc++.dll.a(d000745.o)
                0x00401b6c                __ZNSolsEPFRSoS_E
 .text          0x00401b74        0x8 /usr/lib/gcc/i686-pc-cygwin/4.3.2/libstdc++.dll.a(d000754.o)
                0x00401b74                __ZNSolsEi
 .text          0x00401b7c        0x8 /usr/lib/gcc/i686-pc-cygwin/4.3.2/libstdc++.dll.a(d002279.o)
                0x00401b7c                __ZdlPv
 .text          0x00401b84        0x8 /usr/lib/gcc/i686-pc-cygwin/4.3.2/libstdc++.dll.a(d001745.o)
                0x00401b84                __ZNSt8ios_base4InitD1Ev
 .text          0x00401b8c        0x8 /usr/lib/gcc/i686-pc-cygwin/4.3.2/libstdc++.dll.a(d001914.o)
                0x00401b8c                __ZSt4endlIcSt11char_traitsIcEERSt13basic_ostreamIT_T0_ES6_
 .text          0x00401b94        0x8 /usr/lib/gcc/i686-pc-cygwin/4.3.2/libgcc_s.dll.a(d000035.o)
                0x00401b94                ___deregister_frame_info
 .text          0x00401b9c        0x8 /usr/lib/gcc/i686-pc-cygwin/4.3.2/libgcc_s.dll.a(d000091.o)
                0x00401b9c                ___register_frame_info
 .text          0x00401ba4        0x8 /usr/lib/gcc/i686-pc-cygwin/4.3.2/libgcc_s.dll.a(d000015.o)
                0x00401ba4                __Unwind_Resume
 .text          0x00401bac       0x60 /usr/lib/gcc/i686-pc-cygwin/4.3.2/../../../libcygwin.a(cygwin_crt0.o)
                0x00401bac                _cygwin_crt0
 .text          0x00401c0c       0x10 /usr/lib/gcc/i686-pc-cygwin/4.3.2/../../../libcygwin.a(d000054.o)
                0x00401c0c                ___main
 .text          0x00401c1c      0x150 /usr/lib/gcc/i686-pc-cygwin/4.3.2/../../../libcygwin.a(_cygwin_crt0_common.o)
                0x00401c1c                __cygwin_crt0_common@8
 .text          0x00401d6c        0x0 /usr/lib/gcc/i686-pc-cygwin/4.3.2/../../../libcygwin.a(d000327.o)
 .text          0x00401d6c       0x60 /usr/lib/gcc/i686-pc-cygwin/4.3.2/../../../libcygwin.a(pseudo-reloc.o)
                0x00401d9c                __pei386_runtime_relocator
                0x00401d6c                _do_pseudo_reloc
 .text          0x00401dcc       0x10 /usr/lib/gcc/i686-pc-cygwin/4.3.2/../../../libcygwin.a(d000696.o)
                0x00401dcc                _calloc
 .text          0x00401ddc       0x10 /usr/lib/gcc/i686-pc-cygwin/4.3.2/../../../libcygwin.a(d001281.o)
                0x00401ddc                _realloc
 .text          0x00401dec       0x10 /usr/lib/gcc/i686-pc-cygwin/4.3.2/../../../libcygwin.a(d000870.o)
                0x00401dec                _free
 .text          0x00401dfc       0x10 /usr/lib/gcc/i686-pc-cygwin/4.3.2/../../../libcygwin.a(d001100.o)
                0x00401dfc                _malloc
 .text          0x00401e0c       0x10 /usr/lib/gcc/i686-pc-cygwin/4.3.2/../../../libcygwin.a(premain3.o)
                0x00401e0c                _cygwin_premain3
 .text          0x00401e1c       0x10 /usr/lib/gcc/i686-pc-cygwin/4.3.2/../../../libcygwin.a(premain2.o)
                0x00401e1c                _cygwin_premain2
 .text          0x00401e2c       0x10 /usr/lib/gcc/i686-pc-cygwin/4.3.2/../../../libcygwin.a(premain1.o)
                0x00401e2c                _cygwin_premain1
 .text          0x00401e3c       0x10 /usr/lib/gcc/i686-pc-cygwin/4.3.2/../../../libcygwin.a(premain0.o)
                0x00401e3c                _cygwin_premain0
 .text          0x00401e4c       0x10 /usr/lib/gcc/i686-pc-cygwin/4.3.2/../../../libcygwin.a(d000752.o)
                0x00401e4c                _cygwin_internal
 .text          0x00401e5c        0x8 /usr/lib/w32api/libkernel32.a(dyuhs00337.o)
                0x00401e5c                _GetModuleHandleA@4
 .text          0x00401e64        0x8 /usr/lib/w32api/libkernel32.a(dyuhs00364.o)
                0x00401e64                _GetProcAddress@8
 .text          0x00401e6c        0x0 /usr/lib/w32api/libkernel32.a(dyuhh.o)
 .text          0x00401e6c        0x0 /usr/lib/w32api/libkernel32.a(dyuht.o)
 .text          0x00401e6c        0x0 /usr/lib/gcc/i686-pc-cygwin/4.3.2/libgcc_s.dll.a(_ctors.o)
 *fill*         0x00401e6c        0x4 00
 .text          0x00401e70       0x20 /usr/lib/gcc/i686-pc-cygwin/4.3.2/crtend.o
 *(SORT(.text$*))
 .text$_ZN14FixedAllocatorC1Ev
                0x00401e90       0x44 build/memory1.o
                0x00401e90                __ZN14FixedAllocatorC1Ev
 .text$_ZN14FixedAllocatorD1Ev
                0x00401ed4       0xa8 build/memory1.o
                0x00401ed4                __ZN14FixedAllocatorD1Ev
 .text$_ZN9__gnu_cxx13new_allocatorI5ChunkE10deallocateEPS1_j
                0x00401f7c       0x14 build/memory1.o
                0x00401f7c                __ZN9__gnu_cxx13new_allocatorI5ChunkE10deallocateEPS1_j
 .text$_ZN9__gnu_cxx13new_allocatorI5ChunkEC2Ev
                0x00401f90        0x8 build/memory1.o
                0x00401f90                __ZN9__gnu_cxx13new_allocatorI5ChunkEC2Ev
 .text$_ZN9__gnu_cxx13new_allocatorI5ChunkED2Ev
                0x00401f98        0x8 build/memory1.o
                0x00401f98                __ZN9__gnu_cxx13new_allocatorI5ChunkED2Ev
 .text$_ZN9__gnu_cxx17__normal_iteratorIP5ChunkSt6vectorIS1_SaIS1_EEEC1ERKS2_
                0x00401fa0       0x10 build/memory1.o
                0x00401fa0                __ZN9__gnu_cxx17__normal_iteratorIP5ChunkSt6vectorIS1_SaIS1_EEEC1ERKS2_
 .text$_ZN9__gnu_cxx17__normal_iteratorIP5ChunkSt6vectorIS1_SaIS1_EEEppEv
                0x00401fb0       0x18 build/memory1.o
                0x00401fb0                __ZN9__gnu_cxx17__normal_iteratorIP5ChunkSt6vectorIS1_SaIS1_EEEppEv
 .text$_ZN9__gnu_cxxneIP5ChunkSt6vectorIS1_SaIS1_EEEEbRKNS_17__normal_iteratorIT_T0_EESB_
                0x00401fc8       0x2c build/memory1.o
                0x00401fc8                __ZN9__gnu_cxxneIP5ChunkSt6vectorIS1_SaIS1_EEEEbRKNS_17__normal_iteratorIT_T0_EESB_
 .text$_ZNK9__gnu_cxx17__normal_iteratorIP5ChunkSt6vectorIS1_SaIS1_EEE4baseEv
                0x00401ff4        0x8 build/memory1.o
                0x00401ff4                __ZNK9__gnu_cxx17__normal_iteratorIP5ChunkSt6vectorIS1_SaIS1_EEE4baseEv
 .text$_ZNK9__gnu_cxx17__normal_iteratorIP5ChunkSt6vectorIS1_SaIS1_EEEptEv
                0x00401ffc        0xc build/memory1.o
                0x00401ffc                __ZNK9__gnu_cxx17__normal_iteratorIP5ChunkSt6vectorIS1_SaIS1_EEEptEv
 .text$_ZNSaI5ChunkEC2Ev
                0x00402008       0x14 build/memory1.o
                0x00402008                __ZNSaI5ChunkEC2Ev
 .text$_ZNSaI5ChunkED2Ev
                0x0040201c       0x14 build/memory1.o
                0x0040201c                __ZNSaI5ChunkED2Ev
 .text$_ZNSt12_Vector_baseI5ChunkSaIS0_EE12_Vector_implC1Ev
                0x00402030       0x30 build/memory1.o
                0x00402030                __ZNSt12_Vector_baseI5ChunkSaIS0_EE12_Vector_implC1Ev
 .text$_ZNSt12_Vector_baseI5ChunkSaIS0_EE12_Vector_implD1Ev
                0x00402060       0x14 build/memory1.o
                0x00402060                __ZNSt12_Vector_baseI5ChunkSaIS0_EE12_Vector_implD1Ev
 .text$_ZNSt12_Vector_baseI5ChunkSaIS0_EE13_M_deallocateEPS0_j
                0x00402074       0x2c build/memory1.o
                0x00402074                __ZNSt12_Vector_baseI5ChunkSaIS0_EE13_M_deallocateEPS0_j
 .text$_ZNSt12_Vector_baseI5ChunkSaIS0_EE19_M_get_Tp_allocatorEv
                0x004020a0        0x8 build/memory1.o
                0x004020a0                __ZNSt12_Vector_baseI5ChunkSaIS0_EE19_M_get_Tp_allocatorEv
 .text$_ZNSt12_Vector_baseI5ChunkSaIS0_EEC2Ev
                0x004020a8       0x14 build/memory1.o
                0x004020a8                __ZNSt12_Vector_baseI5ChunkSaIS0_EEC2Ev
 .text$_ZNSt12_Vector_baseI5ChunkSaIS0_EED2Ev
                0x004020bc       0x4c build/memory1.o
                0x004020bc                __ZNSt12_Vector_baseI5ChunkSaIS0_EED2Ev
 .text$_ZNSt6vectorI5ChunkSaIS0_EE3endEv
                0x00402108       0x20 build/memory1.o
                0x00402108                __ZNSt6vectorI5ChunkSaIS0_EE3endEv
 .text$_ZNSt6vectorI5ChunkSaIS0_EE5beginEv
                0x00402128       0x20 build/memory1.o
                0x00402128                __ZNSt6vectorI5ChunkSaIS0_EE5beginEv
 .text$_ZNSt6vectorI5ChunkSaIS0_EEC1Ev
                0x00402148       0x14 build/memory1.o
                0x00402148                __ZNSt6vectorI5ChunkSaIS0_EEC1Ev
 .text$_ZNSt6vectorI5ChunkSaIS0_EED1Ev
                0x0040215c       0x3c build/memory1.o
                0x0040215c                __ZNSt6vectorI5ChunkSaIS0_EED1Ev
 .text$_ZSt8_DestroyIP5ChunkEvT_S2_
                0x00402198        0x8 build/memory1.o
                0x00402198                __ZSt8_DestroyIP5ChunkEvT_S2_
 .text$_ZSt8_DestroyIP5ChunkS0_EvT_S2_RSaIT0_E
                0x004021a0       0x1c build/memory1.o
                0x004021a0                __ZSt8_DestroyIP5ChunkS0_EvT_S2_RSaIT0_E
 *(.glue_7t)
 *(.glue_7)
                0x004021bc                ___CTOR_LIST__ = .
                0x004021bc                __CTOR_LIST__ = .
                0x004021bc        0x4 LONG 0xffffffff
 *(.ctors)
 .ctors         0x004021c0        0x4 build/memory1.o
 *(.ctor)
 *(SORT(.ctors.*))
 .ctors.65535   0x004021c4        0x4 /usr/lib/gcc/i686-pc-cygwin/4.3.2/crtend.o
                0x004021c8        0x4 LONG 0x0
                0x004021cc                ___DTOR_LIST__ = .
                0x004021cc                __DTOR_LIST__ = .
                0x004021cc        0x4 LONG 0xffffffff
 *(.dtors)
 .dtors         0x004021d0        0x4 build/memory1.o
 *(.dtor)
 *(SORT(.dtors.*))
 .dtors.65535   0x004021d4        0x4 /usr/lib/gcc/i686-pc-cygwin/4.3.2/crtend.o
                0x004021d8        0x4 LONG 0x0
 *(.fini)
 *(.gcc_exc)
                0x004021dc                PROVIDE (etext, .)
 *(.gcc_except_table)
 .gcc_except_table
                0x004021dc       0x34 build/memory1.o

.data           0x00403000      0x200
                0x00403000                __data_start__ = .
 *(.data)
 .data          0x00403000        0x0 /usr/lib/gcc/i686-pc-cygwin/4.3.2/../../../crt0.o
 .data          0x00403000        0xc /usr/lib/gcc/i686-pc-cygwin/4.3.2/crtbegin.o
                0x00403004                _deregister_frame_info_ptr
                0x00403008                _jv_registerclasses_ptr
                0x00403000                _register_frame_info_ptr
 .data          0x0040300c        0x0 build/memory1.o
 .data          0x0040300c        0x0 /usr/lib/gcc/i686-pc-cygwin/4.3.2/../../../libcygwin.a(cygwin_crt0.o)
 .data          0x0040300c        0x0 /usr/lib/gcc/i686-pc-cygwin/4.3.2/../../../libcygwin.a(_cygwin_crt0_common.o)
 .data          0x0040300c        0x0 /usr/lib/gcc/i686-pc-cygwin/4.3.2/../../../libcygwin.a(pseudo-reloc.o)
 .data          0x0040300c        0x0 /usr/lib/gcc/i686-pc-cygwin/4.3.2/../../../libcygwin.a(premain3.o)
 .data          0x0040300c        0x0 /usr/lib/gcc/i686-pc-cygwin/4.3.2/../../../libcygwin.a(premain2.o)
 .data          0x0040300c        0x0 /usr/lib/gcc/i686-pc-cygwin/4.3.2/../../../libcygwin.a(premain1.o)
 .data          0x0040300c        0x0 /usr/lib/gcc/i686-pc-cygwin/4.3.2/../../../libcygwin.a(premain0.o)
 .data          0x0040300c        0x0 /usr/lib/w32api/libkernel32.a(dyuhs00337.o)
 .data          0x0040300c        0x0 /usr/lib/w32api/libkernel32.a(dyuhs00364.o)
 .data          0x0040300c        0x0 /usr/lib/w32api/libkernel32.a(dyuhh.o)
 .data          0x0040300c        0x0 /usr/lib/w32api/libkernel32.a(dyuht.o)
 .data          0x0040300c        0x0 /usr/lib/gcc/i686-pc-cygwin/4.3.2/libgcc_s.dll.a(_ctors.o)
 .data          0x0040300c        0x0 /usr/lib/gcc/i686-pc-cygwin/4.3.2/crtend.o
 *(.data2)
 *(SORT(.data$*))
 *(.rdata)
 .rdata         0x0040300c       0x40 /usr/lib/gcc/i686-pc-cygwin/4.3.2/crtbegin.o
 .rdata         0x0040304c       0xd0 build/memory1.o
 *(SORT(.rdata$*))
 *(.jcr)
                0x0040311c                __data_end__ = .
 *(.data_cygwin_nocopy)

.rdata          0x00404000      0x200
 *(.eh_frame)
 .eh_frame      0x00404000        0x0 /usr/lib/gcc/i686-pc-cygwin/4.3.2/crtbegin.o
 .eh_frame      0x00404000       0xd0 build/memory1.o
 .eh_frame      0x004040d0        0x4 /usr/lib/gcc/i686-pc-cygwin/4.3.2/crtend.o
                0x004040d4                ___RUNTIME_PSEUDO_RELOC_LIST__ = .
                0x004040d4                __RUNTIME_PSEUDO_RELOC_LIST__ = .
 *(.rdata_runtime_pseudo_reloc)
                0x004040d4                ___RUNTIME_PSEUDO_RELOC_LIST_END__ = .
                0x004040d4                __RUNTIME_PSEUDO_RELOC_LIST_END__ = .

.pdata
 *(.pdata)

.bss            0x00405000       0x70
                0x00405000                __bss_start__ = .
 *(.bss)
 .bss           0x00405000       0x10 /usr/lib/gcc/i686-pc-cygwin/4.3.2/../../../crt0.o
                0x00405000                ___cygwin_crt0_bp
 .bss           0x00405010       0x20 /usr/lib/gcc/i686-pc-cygwin/4.3.2/crtbegin.o
 .bss           0x00405030       0x10 build/memory1.o
 .bss           0x00405040        0x0 /usr/lib/gcc/i686-pc-cygwin/4.3.2/../../../libcygwin.a(cygwin_crt0.o)
 .bss           0x00405040       0x10 /usr/lib/gcc/i686-pc-cygwin/4.3.2/../../../libcygwin.a(_cygwin_crt0_common.o)
                0x00405044                _environ
                0x00405040                __fmode
 .bss           0x00405050        0x0 /usr/lib/gcc/i686-pc-cygwin/4.3.2/../../../libcygwin.a(pseudo-reloc.o)
 .bss           0x00405050        0x0 /usr/lib/gcc/i686-pc-cygwin/4.3.2/../../../libcygwin.a(premain3.o)
 .bss           0x00405050        0x0 /usr/lib/gcc/i686-pc-cygwin/4.3.2/../../../libcygwin.a(premain2.o)
 .bss           0x00405050        0x0 /usr/lib/gcc/i686-pc-cygwin/4.3.2/../../../libcygwin.a(premain1.o)
 .bss           0x00405050        0x0 /usr/lib/gcc/i686-pc-cygwin/4.3.2/../../../libcygwin.a(premain0.o)
 .bss           0x00405050        0x0 /usr/lib/w32api/libkernel32.a(dyuhs00337.o)
 .bss           0x00405050        0x0 /usr/lib/w32api/libkernel32.a(dyuhs00364.o)
 .bss           0x00405050        0x0 /usr/lib/w32api/libkernel32.a(dyuhh.o)
 .bss           0x00405050        0x0 /usr/lib/w32api/libkernel32.a(dyuht.o)
 .bss           0x00405050        0x0 /usr/lib/gcc/i686-pc-cygwin/4.3.2/libgcc_s.dll.a(_ctors.o)
 .bss           0x00405050        0x0 /usr/lib/gcc/i686-pc-cygwin/4.3.2/crtend.o
 *(COMMON)
 COMMON         0x00405050       0x20 /usr/lib/gcc/i686-pc-cygwin/4.3.2/libgcc_s.dll.a(_ctors.o)
                0x00405070                __bss_end__ = .

.edata
 *(.edata)

/DISCARD/
 *(.debug$S)
 *(.debug$T)
 *(.debug$F)
 *(.drectve)

.idata          0x00406000      0x800
 SORT(*)(.idata$2)
 .idata$2       0x00406000       0x14 /usr/lib/gcc/i686-pc-cygwin/4.3.2/../../../libcygwin.a(d000000.o)
                0x00406000                __head_cygwin1_dll
 .idata$2       0x00406014       0x14 /usr/lib/gcc/i686-pc-cygwin/4.3.2/libgcc_s.dll.a(d000000.o)
                0x00406014                __head_cyggcc_s_1_dll
 .idata$2       0x00406028       0x14 /usr/lib/gcc/i686-pc-cygwin/4.3.2/libstdc++.dll.a(d000000.o)
                0x00406028                __head_cygstdc___6_dll
 .idata$2       0x0040603c       0x14 /usr/lib/w32api/libkernel32.a(dyuhh.o)
                0x0040603c                __head_libkernel32_a
 .idata$2       0x00406050       0x14 fu000001.o
 .idata$2       0x00406064       0x14 fu000002.o
 .idata$2       0x00406078       0x14 fu000003.o
 .idata$2       0x0040608c       0x14 fu000004.o
 .idata$2       0x004060a0       0x14 fu000005.o
 .idata$2       0x004060b4       0x14 fu000006.o
 .idata$2       0x004060c8       0x14 fu000007.o
 .idata$2       0x004060dc       0x14 fu000008.o
 .idata$2       0x004060f0       0x14 fu000009.o
 .idata$2       0x00406104       0x14 fu000010.o
 .idata$2       0x00406118       0x14 fu000011.o
 .idata$2       0x0040612c       0x14 fu000012.o
 .idata$2       0x00406140       0x14 fu000013.o
 .idata$2       0x00406154       0x14 fu000014.o
 .idata$2       0x00406168       0x14 fu000015.o
 .idata$2       0x0040617c       0x14 fu000016.o
 .idata$2       0x00406190       0x14 fu000017.o
 .idata$2       0x004061a4       0x14 fu000018.o
 .idata$2       0x004061b8       0x14 fu000019.o
 .idata$2       0x004061cc       0x14 fu000020.o
 .idata$2       0x004061e0       0x14 fu000021.o
 .idata$2       0x004061f4       0x14 fu000022.o
 .idata$2       0x00406208       0x14 fu000023.o
 .idata$2       0x0040621c       0x14 fu000024.o
 .idata$2       0x00406230       0x14 fu000025.o
 .idata$2       0x00406244       0x14 fu000026.o
 .idata$2       0x00406258       0x14 fu000027.o
 .idata$2       0x0040626c       0x14 fu000028.o
 .idata$2       0x00406280       0x14 fu000029.o
 SORT(*)(.idata$3)
                0x00406294        0x4 LONG 0x0
                0x00406298        0x4 LONG 0x0
                0x0040629c        0x4 LONG 0x0
                0x004062a0        0x4 LONG 0x0
                0x004062a4        0x4 LONG 0x0
 SORT(*)(.idata$4)
 .idata$4       0x004062a8        0x4 /usr/lib/gcc/i686-pc-cygwin/4.3.2/../../../libcygwin.a(d000000.o)
 .idata$4       0x004062ac        0x4 /usr/lib/gcc/i686-pc-cygwin/4.3.2/../../../libcygwin.a(d000054.o)
 .idata$4       0x004062b0        0x4 /usr/lib/gcc/i686-pc-cygwin/4.3.2/../../../libcygwin.a(d000327.o)
 .idata$4       0x004062b4        0x4 /usr/lib/gcc/i686-pc-cygwin/4.3.2/../../../libcygwin.a(d000696.o)
 .idata$4       0x004062b8        0x4 /usr/lib/gcc/i686-pc-cygwin/4.3.2/../../../libcygwin.a(d000752.o)
 .idata$4       0x004062bc        0x4 /usr/lib/gcc/i686-pc-cygwin/4.3.2/../../../libcygwin.a(d000772.o)
 .idata$4       0x004062c0        0x4 /usr/lib/gcc/i686-pc-cygwin/4.3.2/../../../libcygwin.a(d000870.o)
 .idata$4       0x004062c4        0x4 /usr/lib/gcc/i686-pc-cygwin/4.3.2/../../../libcygwin.a(d001100.o)
 .idata$4       0x004062c8        0x4 /usr/lib/gcc/i686-pc-cygwin/4.3.2/../../../libcygwin.a(d001281.o)
 .idata$4       0x004062cc        0x4 /usr/lib/gcc/i686-pc-cygwin/4.3.2/../../../libcygwin.a(d001625.o)
 .idata$4       0x004062d0        0x0 /usr/lib/gcc/i686-pc-cygwin/4.3.2/libgcc_s.dll.a(d000000.o)
 .idata$4       0x004062d0        0x4 /usr/lib/gcc/i686-pc-cygwin/4.3.2/libgcc_s.dll.a(d000015.o)
 .idata$4       0x004062d4        0x4 /usr/lib/gcc/i686-pc-cygwin/4.3.2/libgcc_s.dll.a(d000035.o)
 .idata$4       0x004062d8        0x4 /usr/lib/gcc/i686-pc-cygwin/4.3.2/libgcc_s.dll.a(d000091.o)
 .idata$4       0x004062dc        0x4 /usr/lib/gcc/i686-pc-cygwin/4.3.2/libgcc_s.dll.a(d000104.o)
 .idata$4       0x004062e0        0x0 /usr/lib/gcc/i686-pc-cygwin/4.3.2/libstdc++.dll.a(d000000.o)
 .idata$4       0x004062e0        0x4 /usr/lib/gcc/i686-pc-cygwin/4.3.2/libstdc++.dll.a(d000745.o)
 .idata$4       0x004062e4        0x4 /usr/lib/gcc/i686-pc-cygwin/4.3.2/libstdc++.dll.a(d000754.o)
 .idata$4       0x004062e8        0x4 /usr/lib/gcc/i686-pc-cygwin/4.3.2/libstdc++.dll.a(d001743.o)
 .idata$4       0x004062ec        0x4 /usr/lib/gcc/i686-pc-cygwin/4.3.2/libstdc++.dll.a(d001745.o)
 .idata$4       0x004062f0        0x4 /usr/lib/gcc/i686-pc-cygwin/4.3.2/libstdc++.dll.a(d001913.o)
 .idata$4       0x004062f4        0x4 /usr/lib/gcc/i686-pc-cygwin/4.3.2/libstdc++.dll.a(d001914.o)
 .idata$4       0x004062f8        0x4 /usr/lib/gcc/i686-pc-cygwin/4.3.2/libstdc++.dll.a(d001950.o)
 .idata$4       0x004062fc        0x4 /usr/lib/gcc/i686-pc-cygwin/4.3.2/libstdc++.dll.a(d002279.o)
 .idata$4       0x00406300        0x4 /usr/lib/gcc/i686-pc-cygwin/4.3.2/libstdc++.dll.a(d002316.o)
 .idata$4       0x00406304        0x4 /usr/lib/gcc/i686-pc-cygwin/4.3.2/libstdc++.dll.a(d002342.o)
 .idata$4       0x00406308        0x4 /usr/lib/w32api/libkernel32.a(dyuhh.o)
 .idata$4       0x0040630c        0x4 /usr/lib/w32api/libkernel32.a(dyuhs00337.o)
 .idata$4       0x00406310        0x4 /usr/lib/w32api/libkernel32.a(dyuhs00364.o)
 .idata$4       0x00406314        0x4 /usr/lib/w32api/libkernel32.a(dyuht.o)
 .idata$4       0x00406318        0x8 nmth000000.o
                0x00406318                __nm_thnk___ZSt4cout
 SORT(*)(.idata$5)
 .idata$5       0x00406320        0x4 /usr/lib/gcc/i686-pc-cygwin/4.3.2/../../../libcygwin.a(d000000.o)
 .idata$5       0x00406324        0x4 /usr/lib/gcc/i686-pc-cygwin/4.3.2/../../../libcygwin.a(d000054.o)
                0x00406324                __imp____main
 .idata$5       0x00406328        0x4 /usr/lib/gcc/i686-pc-cygwin/4.3.2/../../../libcygwin.a(d000327.o)
                0x00406328                __imp___impure_ptr
 .idata$5       0x0040632c        0x4 /usr/lib/gcc/i686-pc-cygwin/4.3.2/../../../libcygwin.a(d000696.o)
                0x0040632c                __imp__calloc
 .idata$5       0x00406330        0x4 /usr/lib/gcc/i686-pc-cygwin/4.3.2/../../../libcygwin.a(d000752.o)
                0x00406330                __imp__cygwin_internal
 .idata$5       0x00406334        0x4 /usr/lib/gcc/i686-pc-cygwin/4.3.2/../../../libcygwin.a(d000772.o)
                0x00406334                __imp__dll_crt0__FP11per_process
 .idata$5       0x00406338        0x4 /usr/lib/gcc/i686-pc-cygwin/4.3.2/../../../libcygwin.a(d000870.o)
                0x00406338                __imp__free
 .idata$5       0x0040633c        0x4 /usr/lib/gcc/i686-pc-cygwin/4.3.2/../../../libcygwin.a(d001100.o)
                0x0040633c                __imp__malloc
 .idata$5       0x00406340        0x4 /usr/lib/gcc/i686-pc-cygwin/4.3.2/../../../libcygwin.a(d001281.o)
                0x00406340                __imp__realloc
 .idata$5       0x00406344        0x4 /usr/lib/gcc/i686-pc-cygwin/4.3.2/../../../libcygwin.a(d001625.o)
 .idata$5       0x00406348        0x0 /usr/lib/gcc/i686-pc-cygwin/4.3.2/libgcc_s.dll.a(d000000.o)
 .idata$5       0x00406348        0x4 /usr/lib/gcc/i686-pc-cygwin/4.3.2/libgcc_s.dll.a(d000015.o)
                0x00406348                __imp___Unwind_Resume
 .idata$5       0x0040634c        0x4 /usr/lib/gcc/i686-pc-cygwin/4.3.2/libgcc_s.dll.a(d000035.o)
                0x0040634c                __imp____deregister_frame_info
 .idata$5       0x00406350        0x4 /usr/lib/gcc/i686-pc-cygwin/4.3.2/libgcc_s.dll.a(d000091.o)
                0x00406350                __imp____register_frame_info
 .idata$5       0x00406354        0x4 /usr/lib/gcc/i686-pc-cygwin/4.3.2/libgcc_s.dll.a(d000104.o)
 .idata$5       0x00406358        0x0 /usr/lib/gcc/i686-pc-cygwin/4.3.2/libstdc++.dll.a(d000000.o)
 .idata$5       0x00406358        0x4 /usr/lib/gcc/i686-pc-cygwin/4.3.2/libstdc++.dll.a(d000745.o)
                0x00406358                __imp___ZNSolsEPFRSoS_E
 .idata$5       0x0040635c        0x4 /usr/lib/gcc/i686-pc-cygwin/4.3.2/libstdc++.dll.a(d000754.o)
                0x0040635c                __imp___ZNSolsEi
 .idata$5       0x00406360        0x4 /usr/lib/gcc/i686-pc-cygwin/4.3.2/libstdc++.dll.a(d001743.o)
                0x00406360                __imp___ZNSt8ios_base4InitC1Ev
 .idata$5       0x00406364        0x4 /usr/lib/gcc/i686-pc-cygwin/4.3.2/libstdc++.dll.a(d001745.o)
                0x00406364                __imp___ZNSt8ios_base4InitD1Ev
 .idata$5       0x00406368        0x4 /usr/lib/gcc/i686-pc-cygwin/4.3.2/libstdc++.dll.a(d001913.o)
                0x00406368                __imp___ZSt4cout
                0x00406368                __imp___ZSt4cout
 .idata$5       0x0040636c        0x4 /usr/lib/gcc/i686-pc-cygwin/4.3.2/libstdc++.dll.a(d001914.o)
                0x0040636c                __imp___ZSt4endlIcSt11char_traitsIcEERSt13basic_ostreamIT_T0_ES6_
 .idata$5       0x00406370        0x4 /usr/lib/gcc/i686-pc-cygwin/4.3.2/libstdc++.dll.a(d001950.o)
                0x00406370                __imp___ZStlsISt11char_traitsIcEERSt13basic_ostreamIcT_ES5_PKc
 .idata$5       0x00406374        0x4 /usr/lib/gcc/i686-pc-cygwin/4.3.2/libstdc++.dll.a(d002279.o)
                0x00406374                __imp___ZdlPv
 .idata$5       0x00406378        0x4 /usr/lib/gcc/i686-pc-cygwin/4.3.2/libstdc++.dll.a(d002316.o)
                0x00406378                __imp____gxx_personality_v0
 .idata$5       0x0040637c        0x4 /usr/lib/gcc/i686-pc-cygwin/4.3.2/libstdc++.dll.a(d002342.o)
 .idata$5       0x00406380        0x4 /usr/lib/w32api/libkernel32.a(dyuhh.o)
 .idata$5       0x00406384        0x4 /usr/lib/w32api/libkernel32.a(dyuhs00337.o)
                0x00406384                __imp__GetModuleHandleA@4
 .idata$5       0x00406388        0x4 /usr/lib/w32api/libkernel32.a(dyuhs00364.o)
                0x00406388                __imp__GetProcAddress@8
 .idata$5       0x0040638c        0x4 /usr/lib/w32api/libkernel32.a(dyuht.o)
 SORT(*)(.idata$6)
 .idata$6       0x00406390        0xc /usr/lib/gcc/i686-pc-cygwin/4.3.2/../../../libcygwin.a(d000054.o)
 .idata$6       0x0040639c       0x10 /usr/lib/gcc/i686-pc-cygwin/4.3.2/../../../libcygwin.a(d000327.o)
                0x0040639c                __nm___impure_ptr
 .idata$6       0x004063ac        0xc /usr/lib/gcc/i686-pc-cygwin/4.3.2/../../../libcygwin.a(d000696.o)
 .idata$6       0x004063b8       0x14 /usr/lib/gcc/i686-pc-cygwin/4.3.2/../../../libcygwin.a(d000752.o)
 .idata$6       0x004063cc       0x1c /usr/lib/gcc/i686-pc-cygwin/4.3.2/../../../libcygwin.a(d000772.o)
 .idata$6       0x004063e8        0x8 /usr/lib/gcc/i686-pc-cygwin/4.3.2/../../../libcygwin.a(d000870.o)
 .idata$6       0x004063f0        0xc /usr/lib/gcc/i686-pc-cygwin/4.3.2/../../../libcygwin.a(d001100.o)
 .idata$6       0x004063fc        0xc /usr/lib/gcc/i686-pc-cygwin/4.3.2/../../../libcygwin.a(d001281.o)
 .idata$6       0x00406408       0x14 /usr/lib/gcc/i686-pc-cygwin/4.3.2/libgcc_s.dll.a(d000015.o)
 .idata$6       0x0040641c       0x1c /usr/lib/gcc/i686-pc-cygwin/4.3.2/libgcc_s.dll.a(d000035.o)
 .idata$6       0x00406438       0x18 /usr/lib/gcc/i686-pc-cygwin/4.3.2/libgcc_s.dll.a(d000091.o)
 .idata$6       0x00406450       0x14 /usr/lib/gcc/i686-pc-cygwin/4.3.2/libstdc++.dll.a(d000745.o)
 .idata$6       0x00406464        0xc /usr/lib/gcc/i686-pc-cygwin/4.3.2/libstdc++.dll.a(d000754.o)
 .idata$6       0x00406470       0x1c /usr/lib/gcc/i686-pc-cygwin/4.3.2/libstdc++.dll.a(d001743.o)
 .idata$6       0x0040648c       0x1c /usr/lib/gcc/i686-pc-cygwin/4.3.2/libstdc++.dll.a(d001745.o)
 .idata$6       0x004064a8        0xc /usr/lib/gcc/i686-pc-cygwin/4.3.2/libstdc++.dll.a(d001913.o)
                0x004064a8                __nm___ZSt4cout
 .idata$6       0x004064b4       0x40 /usr/lib/gcc/i686-pc-cygwin/4.3.2/libstdc++.dll.a(d001914.o)
 .idata$6       0x004064f4       0x3c /usr/lib/gcc/i686-pc-cygwin/4.3.2/libstdc++.dll.a(d001950.o)
 .idata$6       0x00406530        0xc /usr/lib/gcc/i686-pc-cygwin/4.3.2/libstdc++.dll.a(d002279.o)
 .idata$6       0x0040653c       0x18 /usr/lib/gcc/i686-pc-cygwin/4.3.2/libstdc++.dll.a(d002316.o)
 .idata$6       0x00406554       0x14 /usr/lib/w32api/libkernel32.a(dyuhs00337.o)
 .idata$6       0x00406568       0x12 /usr/lib/w32api/libkernel32.a(dyuhs00364.o)
 SORT(*)(.idata$7)
 *fill*         0x0040657a        0x2 00
 .idata$7       0x0040657c        0x4 /usr/lib/gcc/i686-pc-cygwin/4.3.2/../../../libcygwin.a(d000054.o)
 .idata$7       0x00406580        0x4 /usr/lib/gcc/i686-pc-cygwin/4.3.2/../../../libcygwin.a(d000327.o)
 .idata$7       0x00406584        0x4 /usr/lib/gcc/i686-pc-cygwin/4.3.2/../../../libcygwin.a(d000696.o)
 .idata$7       0x00406588        0x4 /usr/lib/gcc/i686-pc-cygwin/4.3.2/../../../libcygwin.a(d000752.o)
 .idata$7       0x0040658c        0x4 /usr/lib/gcc/i686-pc-cygwin/4.3.2/../../../libcygwin.a(d000772.o)
 .idata$7       0x00406590        0x4 /usr/lib/gcc/i686-pc-cygwin/4.3.2/../../../libcygwin.a(d000870.o)
 .idata$7       0x00406594        0x4 /usr/lib/gcc/i686-pc-cygwin/4.3.2/../../../libcygwin.a(d001100.o)
 .idata$7       0x00406598        0x4 /usr/lib/gcc/i686-pc-cygwin/4.3.2/../../../libcygwin.a(d001281.o)
 .idata$7       0x0040659c        0xc /usr/lib/gcc/i686-pc-cygwin/4.3.2/../../../libcygwin.a(d001625.o)
                0x0040659c                _cygwin1_dll_iname
 .idata$7       0x004065a8        0x4 /usr/lib/gcc/i686-pc-cygwin/4.3.2/libgcc_s.dll.a(d000015.o)
 .idata$7       0x004065ac        0x4 /usr/lib/gcc/i686-pc-cygwin/4.3.2/libgcc_s.dll.a(d000035.o)
 .idata$7       0x004065b0        0x4 /usr/lib/gcc/i686-pc-cygwin/4.3.2/libgcc_s.dll.a(d000091.o)
 .idata$7       0x004065b4       0x10 /usr/lib/gcc/i686-pc-cygwin/4.3.2/libgcc_s.dll.a(d000104.o)
                0x004065b4                _cyggcc_s_1_dll_iname
 .idata$7       0x004065c4        0x4 /usr/lib/gcc/i686-pc-cygwin/4.3.2/libstdc++.dll.a(d000745.o)
 .idata$7       0x004065c8        0x4 /usr/lib/gcc/i686-pc-cygwin/4.3.2/libstdc++.dll.a(d000754.o)
 .idata$7       0x004065cc        0x4 /usr/lib/gcc/i686-pc-cygwin/4.3.2/libstdc++.dll.a(d001743.o)
 .idata$7       0x004065d0        0x4 /usr/lib/gcc/i686-pc-cygwin/4.3.2/libstdc++.dll.a(d001745.o)
 .idata$7       0x004065d4        0x4 /usr/lib/gcc/i686-pc-cygwin/4.3.2/libstdc++.dll.a(d001913.o)
 .idata$7       0x004065d8        0x4 /usr/lib/gcc/i686-pc-cygwin/4.3.2/libstdc++.dll.a(d001914.o)
 .idata$7       0x004065dc        0x4 /usr/lib/gcc/i686-pc-cygwin/4.3.2/libstdc++.dll.a(d001950.o)
 .idata$7       0x004065e0        0x4 /usr/lib/gcc/i686-pc-cygwin/4.3.2/libstdc++.dll.a(d002279.o)
 .idata$7       0x004065e4        0x4 /usr/lib/gcc/i686-pc-cygwin/4.3.2/libstdc++.dll.a(d002316.o)
 .idata$7       0x004065e8       0x10 /usr/lib/gcc/i686-pc-cygwin/4.3.2/libstdc++.dll.a(d002342.o)
                0x004065e8                _cygstdc___6_dll_iname
 .idata$7       0x004065f8        0x4 /usr/lib/w32api/libkernel32.a(dyuhs00337.o)
 .idata$7       0x004065fc        0x4 /usr/lib/w32api/libkernel32.a(dyuhs00364.o)
 .idata$7       0x00406600       0x10 /usr/lib/w32api/libkernel32.a(dyuht.o)
                0x00406600                __libkernel32_a_iname

.CRT            0x00407000        0x0
                0x00407000                ___crt_xc_start__ = .
 *(SORT(.CRT$XC*))
                0x00407000                ___crt_xc_end__ = .
                0x00407000                ___crt_xi_start__ = .
 *(SORT(.CRT$XI*))
                0x00407000                ___crt_xi_end__ = .
                0x00407000                ___crt_xl_start__ = .
 *(SORT(.CRT$XL*))
                0x00407000                ___crt_xp_start__ = .
 *(SORT(.CRT$XP*))
                0x00407000                ___crt_xp_end__ = .
                0x00407000                ___crt_xt_start__ = .
 *(SORT(.CRT$XT*))
                0x00407000                ___crt_xt_end__ = .

.tls            0x00407000        0x0
                0x00407000                ___tls_start__ = .
 *(.tls)
 *(.tls$)
 *(SORT(.tls$*))
                0x00407000                ___tls_end__ = .

.endjunk        0x00407000        0x0
                0x00407000                PROVIDE (end, .)
                0x00407000                PROVIDE (_end, .)
                0x00407000                __end__ = .

.rsrc
 *(.rsrc)
 *(SORT(.rsrc$*))

.reloc
 *(.reloc)

.stab
 *(.stab)

.stabstr
 *(.stabstr)

.debug_aranges
 *(.debug_aranges)

.debug_pubnames
                0x00407000      0x200
 *(.debug_pubnames)
 .debug_pubnames
                0x00407000       0x36 /usr/lib/gcc/i686-pc-cygwin/4.3.2/libgcc_s.dll.a(_ctors.o)

.debug_info     0x00408000      0x400
 *(.debug_info)
 .debug_info    0x00408000      0x225 /usr/lib/gcc/i686-pc-cygwin/4.3.2/libgcc_s.dll.a(_ctors.o)
 *(.gnu.linkonce.wi.*)

.debug_abbrev   0x00409000      0x200
 *(.debug_abbrev)
 .debug_abbrev  0x00409000       0x68 /usr/lib/gcc/i686-pc-cygwin/4.3.2/libgcc_s.dll.a(_ctors.o)

.debug_line     0x0040a000      0x200
 *(.debug_line)
 .debug_line    0x0040a000       0x73 /usr/lib/gcc/i686-pc-cygwin/4.3.2/libgcc_s.dll.a(_ctors.o)

.debug_frame
 *(.debug_frame)

.debug_str
 *(.debug_str)

.debug_loc
 *(.debug_loc)

.debug_macinfo
 *(.debug_macinfo)

.debug_weaknames
 *(.debug_weaknames)

.debug_funcnames
 *(.debug_funcnames)

.debug_typenames
 *(.debug_typenames)

.debug_varnames
 *(.debug_varnames)

.debug_ranges
 *(.debug_ranges)
OUTPUT(build/test.exe pei-i386)
LOAD nmth000000.o
LOAD fu000001.o
LOAD fu000002.o
LOAD fu000003.o
LOAD fu000004.o
LOAD fu000005.o
LOAD fu000006.o
LOAD fu000007.o
LOAD fu000008.o
LOAD fu000009.o
LOAD fu000010.o
LOAD fu000011.o
LOAD fu000012.o
LOAD fu000013.o
LOAD fu000014.o
LOAD fu000015.o
LOAD fu000016.o
LOAD fu000017.o
LOAD fu000018.o
LOAD fu000019.o
LOAD fu000020.o
LOAD fu000021.o
LOAD fu000022.o
LOAD fu000023.o
LOAD fu000024.o
LOAD fu000025.o
LOAD fu000026.o
LOAD fu000027.o
LOAD fu000028.o
LOAD fu000029.o
